; Function Attrs: mustprogress nofree norecurse nosync nounwind willreturn memory(read, inaccessiblemem: none) uwtable
define noundef zeroext i1 @_ZNK7rocksdb23UncompressionDictReader23cache_dictionary_blocksEv(ptr noundef nonnull readonly align 8 captures(none) dereferenceable(40) %0) local_unnamed_addr #7 align 2 {
  %2 = load ptr, ptr %0, align 8, !tbaa !38
  %3 = getelementptr inbounds nuw i8, ptr %2, i64 8
  %4 = load ptr, ptr %3, align 8, !tbaa !47
  %5 = getelementptr inbounds nuw i8, ptr %4, i64 32
  %6 = load i8, ptr %5, align 8, !tbaa !216, !range !34, !noundef !35
  %7 = trunc nuw i8 %6 to i1
  ret i1 %7
}